; Function Attrs: mustprogress uwtable
define void @_ZNK6casadi11FmuInternal9serializeERNS_17SerializingStreamE(ptr noundef nonnull align 8 dereferenceable(744) %0, ptr noundef nonnull align 8 dereferenceable(73) %1) local_unnamed_addr #4 align 2 {
  %3 = load ptr, ptr %0, align 8, !tbaa !23
  %4 = getelementptr inbounds nuw i8, ptr %3, i64 160
  %5 = load ptr, ptr %4, align 8
  tail call void %5(ptr noundef nonnull align 8 dereferenceable(744) %0, ptr noundef nonnull align 8 dereferenceable(73) %1)
  %6 = load ptr, ptr %0, align 8, !tbaa !23
  %7 = getelementptr inbounds nuw i8, ptr %6, i64 168
  %8 = load ptr, ptr %7, align 8
  tail call void %8(ptr noundef nonnull align 8 dereferenceable(744) %0, ptr noundef nonnull align 8 dereferenceable(73) %1)
  ret void
}